; Function Attrs: nounwind uwtable
define dso_local void @protectClient(ptr noundef captures(none) %0) local_unnamed_addr #0 {
  %2 = getelementptr inbounds nuw i8, ptr %0, i64 8
  %3 = load i64, ptr %2, align 8, !tbaa !86
  %4 = or i64 %3, 268435456
  store i64 %4, ptr %2, align 8, !tbaa !86
  %5 = getelementptr inbounds nuw i8, ptr %0, i64 16
  %6 = load ptr, ptr %5, align 8, !tbaa !75
  %.not = icmp eq ptr %6, null
  br i1 %.not, label %21, label %7

7:                                                ; preds = %1
  %8 = getelementptr inbounds nuw i8, ptr %0, i64 24
  %9 = load i8, ptr %8, align 8, !tbaa !72
  %10 = icmp eq i8 %9, 0
  br i1 %10, label %11, label %21

11:                                               ; preds = %7
  %12 = load ptr, ptr %6, align 8, !tbaa !66
  %13 = getelementptr inbounds nuw i8, ptr %12, i64 160
  %14 = load ptr, ptr %13, align 8, !tbaa !68
  %15 = tail call i32 %14(ptr noundef nonnull %6, ptr noundef null) #26
  %16 = load ptr, ptr %5, align 8, !tbaa !75
  %17 = load ptr, ptr %16, align 8, !tbaa !66
  %18 = getelementptr inbounds nuw i8, ptr %17, i64 152
  %19 = load ptr, ptr %18, align 8, !tbaa !116
  %20 = tail call i32 %19(ptr noundef nonnull %16, ptr noundef null, i32 noundef 0) #26
  br label %21

21:                                               ; preds = %11, %7, %1
  ret void
}